target datalayout = "e-m:e-p270:32:32-p271:32:32-p272:64:64-i64:64-i128:128-f80:128-n8:16:32:64-S128"
target triple = "x86_64-pc-linux-gnu"

@degree = internal global double 0.000000e+00, align 8

; Function Attrs: nounwind uwtable
define internal void @sincosdx(double noundef %0, ptr noundef %1, ptr noundef %2) #0 {
  %4 = alloca double, align 8
  %5 = alloca ptr, align 8
  %6 = alloca ptr, align 8
  %7 = alloca double, align 8
  %8 = alloca double, align 8
  %9 = alloca double, align 8
  %10 = alloca i32, align 4
  store double %0, ptr %4, align 8, !tbaa !8
  store ptr %1, ptr %5, align 8, !tbaa !24
  store ptr %2, ptr %6, align 8, !tbaa !24
  call void @llvm.lifetime.start.p0(i64 8, ptr %7) #6
  call void @llvm.lifetime.start.p0(i64 8, ptr %8) #6
  call void @llvm.lifetime.start.p0(i64 8, ptr %9) #6
  call void @llvm.lifetime.start.p0(i64 4, ptr %10) #6
  store i32 0, ptr %10, align 4, !tbaa !10
  %11 = load double, ptr %4, align 8, !tbaa !8
  %12 = call double @remquo(double noundef %11, double noundef 9.000000e+01, ptr noundef %10) #6
  store double %12, ptr %7, align 8, !tbaa !8
  %13 = load double, ptr @degree, align 8, !tbaa !8
  %14 = load double, ptr %7, align 8, !tbaa !8
  %15 = fmul double %14, %13
  store double %15, ptr %7, align 8, !tbaa !8
  %16 = load double, ptr %7, align 8, !tbaa !8
  %17 = call double @sin(double noundef %16) #6, !tbaa !10
  store double %17, ptr %8, align 8, !tbaa !8
  %18 = load double, ptr %7, align 8, !tbaa !8
  %19 = call double @cos(double noundef %18) #6, !tbaa !10
  store double %19, ptr %9, align 8, !tbaa !8
  %20 = load i32, ptr %10, align 4, !tbaa !10
  %21 = and i32 %20, 3
  switch i32 %21, label %40 [
    i32 0, label %22
    i32 1, label %27
    i32 2, label %33
  ]

22:                                               ; preds = %3
  %23 = load double, ptr %8, align 8, !tbaa !8
  %24 = load ptr, ptr %5, align 8, !tbaa !24
  store double %23, ptr %24, align 8, !tbaa !8
  %25 = load double, ptr %9, align 8, !tbaa !8
  %26 = load ptr, ptr %6, align 8, !tbaa !24
  store double %25, ptr %26, align 8, !tbaa !8
  br label %46

27:                                               ; preds = %3
  %28 = load double, ptr %9, align 8, !tbaa !8
  %29 = load ptr, ptr %5, align 8, !tbaa !24
  store double %28, ptr %29, align 8, !tbaa !8
  %30 = load double, ptr %8, align 8, !tbaa !8
  %31 = fneg double %30
  %32 = load ptr, ptr %6, align 8, !tbaa !24
  store double %31, ptr %32, align 8, !tbaa !8
  br label %46

33:                                               ; preds = %3
  %34 = load double, ptr %8, align 8, !tbaa !8
  %35 = fneg double %34
  %36 = load ptr, ptr %5, align 8, !tbaa !24
  store double %35, ptr %36, align 8, !tbaa !8
  %37 = load double, ptr %9, align 8, !tbaa !8
  %38 = fneg double %37
  %39 = load ptr, ptr %6, align 8, !tbaa !24
  store double %38, ptr %39, align 8, !tbaa !8
  br label %46

40:                                               ; preds = %3
  %41 = load double, ptr %9, align 8, !tbaa !8
  %42 = fneg double %41
  %43 = load ptr, ptr %5, align 8, !tbaa !24
  store double %42, ptr %43, align 8, !tbaa !8
  %44 = load double, ptr %8, align 8, !tbaa !8
  %45 = load ptr, ptr %6, align 8, !tbaa !24
  store double %44, ptr %45, align 8, !tbaa !8
  br label %46

46:                                               ; preds = %40, %33, %27, %22
  %47 = load ptr, ptr %6, align 8, !tbaa !24
  %48 = load double, ptr %47, align 8, !tbaa !8
  %49 = fadd double %48, 0.000000e+00
  store double %49, ptr %47, align 8, !tbaa !8
  %50 = load ptr, ptr %5, align 8, !tbaa !24
  %51 = load double, ptr %50, align 8, !tbaa !8
  %52 = fcmp oeq double %51, 0.000000e+00
  br i1 %52, label %53, label %59

53:                                               ; preds = %46
  %54 = load ptr, ptr %5, align 8, !tbaa !24
  %55 = load double, ptr %54, align 8, !tbaa !8
  %56 = load double, ptr %4, align 8, !tbaa !8
  %57 = call double @llvm.copysign.f64(double %55, double %56)
  %58 = load ptr, ptr %5, align 8, !tbaa !24
  store double %57, ptr %58, align 8, !tbaa !8
  br label %59

59:                                               ; preds = %53, %46
  call void @llvm.lifetime.end.p0(i64 4, ptr %10) #6
  call void @llvm.lifetime.end.p0(i64 8, ptr %9) #6
  call void @llvm.lifetime.end.p0(i64 8, ptr %8) #6
  call void @llvm.lifetime.end.p0(i64 8, ptr %7) #6
  ret void
}

; Function Attrs: nounwind uwtable
define internal double @AngRound(double noundef %0) #0 {
  %2 = alloca double, align 8
  %3 = alloca double, align 8
  %4 = alloca double, align 8
  %5 = alloca double, align 8
  store double %0, ptr %2, align 8, !tbaa !8
  call void @llvm.lifetime.start.p0(i64 8, ptr %3) #6
  store double 6.250000e-02, ptr %3, align 8, !tbaa !8
  call void @llvm.lifetime.start.p0(i64 8, ptr %4) #6
  %6 = load double, ptr %2, align 8, !tbaa !8
  %7 = call double @llvm.fabs.f64(double %6)
  store volatile double %7, ptr %4, align 8, !tbaa !8
  call void @llvm.lifetime.start.p0(i64 8, ptr %5) #6
  %8 = load volatile double, ptr %4, align 8, !tbaa !8
  %9 = fsub double 6.250000e-02, %8
  store volatile double %9, ptr %5, align 8, !tbaa !8
  %10 = load volatile double, ptr %5, align 8, !tbaa !8
  %11 = fcmp ogt double %10, 0.000000e+00
  br i1 %11, label %12, label %15

12:                                               ; preds = %1
  %13 = load volatile double, ptr %5, align 8, !tbaa !8
  %14 = fsub double 6.250000e-02, %13
  br label %17

15:                                               ; preds = %1
  %16 = load volatile double, ptr %4, align 8, !tbaa !8
  br label %17

17:                                               ; preds = %15, %12
  %18 = phi double [ %14, %12 ], [ %16, %15 ]
  store volatile double %18, ptr %4, align 8, !tbaa !8
  %19 = load volatile double, ptr %4, align 8, !tbaa !8
  %20 = load double, ptr %2, align 8, !tbaa !8
  %21 = call double @llvm.copysign.f64(double %19, double %20)
  call void @llvm.lifetime.end.p0(i64 8, ptr %5) #6
  call void @llvm.lifetime.end.p0(i64 8, ptr %4) #6
  call void @llvm.lifetime.end.p0(i64 8, ptr %3) #6
  ret double %21
}

; Function Attrs: nounwind uwtable
define internal double @AngNormalize(double noundef %0) #0 {
  %2 = alloca double, align 8
  %3 = alloca double, align 8
  store double %0, ptr %2, align 8, !tbaa !8
  call void @llvm.lifetime.start.p0(i64 8, ptr %3) #6
  %4 = load double, ptr %2, align 8, !tbaa !8
  %5 = call double @remainder(double noundef %4, double noundef 3.600000e+02) #6, !tbaa !10
  store double %5, ptr %3, align 8, !tbaa !8
  %6 = load double, ptr %3, align 8, !tbaa !8
  %7 = call double @llvm.fabs.f64(double %6)
  %8 = fcmp oeq double %7, 1.800000e+02
  br i1 %8, label %9, label %12

9:                                                ; preds = %1
  %10 = load double, ptr %2, align 8, !tbaa !8
  %11 = call double @llvm.copysign.f64(double 1.800000e+02, double %10)
  br label %14

12:                                               ; preds = %1
  %13 = load double, ptr %3, align 8, !tbaa !8
  br label %14

14:                                               ; preds = %12, %9
  %15 = phi double [ %11, %9 ], [ %13, %12 ]
  call void @llvm.lifetime.end.p0(i64 8, ptr %3) #6
  ret double %15
}

; Function Attrs: nounwind uwtable
define void @geod_lineinit(ptr noundef %0, ptr noundef %1, double noundef %2, double noundef %3, double noundef %4, i32 noundef %5) #0 {
  %7 = alloca ptr, align 8
  %8 = alloca ptr, align 8
  %9 = alloca double, align 8
  %10 = alloca double, align 8
  %11 = alloca double, align 8
  %12 = alloca i32, align 4
  %13 = alloca double, align 8
  %14 = alloca double, align 8
  store ptr %0, ptr %7, align 8, !tbaa !22
  store ptr %1, ptr %8, align 8, !tbaa !3
  store double %2, ptr %9, align 8, !tbaa !8
  store double %3, ptr %10, align 8, !tbaa !8
  store double %4, ptr %11, align 8, !tbaa !8
  store i32 %5, ptr %12, align 4, !tbaa !10
  call void @llvm.lifetime.start.p0(i64 8, ptr %13) #6
  call void @llvm.lifetime.start.p0(i64 8, ptr %14) #6
  %15 = load double, ptr %11, align 8, !tbaa !8
  %16 = call double @AngNormalize(double noundef %15)
  store double %16, ptr %11, align 8, !tbaa !8
  %17 = load double, ptr %11, align 8, !tbaa !8
  %18 = call double @AngRound(double noundef %17)
  call void @sincosdx(double noundef %18, ptr noundef %13, ptr noundef %14)
  %19 = load ptr, ptr %7, align 8, !tbaa !22
  %20 = load ptr, ptr %8, align 8, !tbaa !3
  %21 = load double, ptr %9, align 8, !tbaa !8
  %22 = load double, ptr %10, align 8, !tbaa !8
  %23 = load double, ptr %11, align 8, !tbaa !8
  %24 = load double, ptr %13, align 8, !tbaa !8
  %25 = load double, ptr %14, align 8, !tbaa !8
  %26 = load i32, ptr %12, align 4, !tbaa !10
  call void @geod_lineinit_int(ptr noundef %19, ptr noundef %20, double noundef %21, double noundef %22, double noundef %23, double noundef %24, double noundef %25, i32 noundef %26)
  call void @llvm.lifetime.end.p0(i64 8, ptr %14) #6
  call void @llvm.lifetime.end.p0(i64 8, ptr %13) #6
  ret void
}